Certificate:
    Data:
        Version: 3 (0x2)
        Serial Number: 3 (0x3)
        Signature Algorithm: SM2-with-SM3
        Issuer: C=XX, ST=XX, O=certificate, OU=testin, CN=certificate.testin.com
        Validity
            Not Before: May 22 07:00:06 2024 GMT
            Not After : May 20 07:00:06 2034 GMT
        Subject: C=XX, ST=XX, O=certificate, OU=testend, CN=certificate.testenc.com
        Subject Public Key Info:
            Public Key Algorithm: id-ecPublicKey
                Public-Key: (256 bit)
                pub:
                    04:9b:d6:d6:35:bb:e9:7b:cc:0b:bd:a3:cb:98:5f:
                    61:46:a5:b1:52:32:da:1e:89:b4:82:d5:2c:4b:56:
                    fb:86:d0:7f:de:b4:74:f8:4e:04:e4:59:1b:2c:d3:
                    78:ea:6a:50:c0:05:30:9f:e8:ce:a1:37:59:77:e2:
                    8c:f6:5d:ee:86
                ASN1 OID: SM2
        X509v3 extensions:
            X509v3 Basic Constraints: 
                CA:FALSE
            X509v3 Key Usage: 
                Key Encipherment, Data Encipherment, Key Agreement
            X509v3 Subject Key Identifier: 
                30:1D:5A:5D:E8:06:77:EB:27:A1:8D:08:57:96:A5:83:C1:E2:79:CF
            X509v3 Authority Key Identifier: 
                B1:7A:BC:A4:01:D4:31:78:E3:68:1D:EA:8E:DB:37:A6:2F:F6:ED:3A
    Signature Algorithm: SM2-with-SM3
    Signature Value:
        30:46:02:21:00:c9:b1:05:01:e4:26:7b:8d:94:d8:dc:cd:b7:
        8b:91:49:99:72:6c:3e:71:63:a5:e4:f4:71:f7:fe:dd:0a:21:
        da:02:21:00:cf:2e:30:44:6c:c8:7b:a3:84:a2:48:05:ce:51:
        7a:38:27:65:27:35:38:af:60:42:84:c9:15:17:7b:fb:7a:43
-----BEGIN CERTIFICATE-----
MIICEDCCAbWgAwIBAgIBAzAKBggqgRzPVQGDdTBiMQswCQYDVQQGEwJYWDELMAkG
A1UECAwCWFgxFDASBgNVBAoMC2NlcnRpZmljYXRlMQ8wDQYDVQQLDAZ0ZXN0aW4x
HzAdBgNVBAMMFmNlcnRpZmljYXRlLnRlc3Rpbi5jb20wHhcNMjQwNTIyMDcwMDA2
WhcNMzQwNTIwMDcwMDA2WjBkMQswCQYDVQQGEwJYWDELMAkGA1UECAwCWFgxFDAS
BgNVBAoMC2NlcnRpZmljYXRlMRAwDgYDVQQLDAd0ZXN0ZW5kMSAwHgYDVQQDDBdj
ZXJ0aWZpY2F0ZS50ZXN0ZW5jLmNvbTBZMBMGByqGSM49AgEGCCqBHM9VAYItA0IA
BJvW1jW76XvMC72jy5hfYUalsVIy2h6JtILVLEtW+4bQf960dPhOBORZGyzTeOpq
UMAFMJ/ozqE3WXfijPZd7oajWjBYMAkGA1UdEwQCMAAwCwYDVR0PBAQDAgM4MB0G
A1UdDgQWBBQwHVpd6AZ36yehjQhXlqWDweJ5zzAfBgNVHSMEGDAWgBSxerykAdQx
eONoHeqO2zemL/btOjAKBggqgRzPVQGDdQNJADBGAiEAybEFAeQme42U2NzNt4uR
SZlybD5xY6Xk9HH3/t0KIdoCIQDPLjBEbMh7o4SiSAXOUXo4J2UnNTivYEKEyRUX
e/t6Qw==
-----END CERTIFICATE-----
